target datalayout = "e-m:e-p270:32:32-p271:32:32-p272:64:64-i64:64-i128:128-f80:128-n8:16:32:64-S128"
target triple = "x86_64-pc-linux-gnu"

%struct.geod_geodesicline = type { double, double, double, double, double, double, double, double, double, double, double, double, double, double, double, double, double, double, double, double, double, double, double, double, double, double, double, double, double, double, [7 x double], [7 x double], [7 x double], [6 x double], [6 x double], i32 }

@NaN = internal global double 0.000000e+00, align 8
@degree = internal global double 0.000000e+00, align 8

; Function Attrs: nounwind uwtable
define internal void @swapx(ptr noundef %0, ptr noundef %1) #0 {
  %3 = alloca ptr, align 8
  %4 = alloca ptr, align 8
  %5 = alloca double, align 8
  store ptr %0, ptr %3, align 8, !tbaa !24
  store ptr %1, ptr %4, align 8, !tbaa !24
  call void @llvm.lifetime.start.p0(i64 8, ptr %5) #6
  %6 = load ptr, ptr %3, align 8, !tbaa !24
  %7 = load double, ptr %6, align 8, !tbaa !8
  store double %7, ptr %5, align 8, !tbaa !8
  %8 = load ptr, ptr %4, align 8, !tbaa !24
  %9 = load double, ptr %8, align 8, !tbaa !8
  %10 = load ptr, ptr %3, align 8, !tbaa !24
  store double %9, ptr %10, align 8, !tbaa !8
  %11 = load double, ptr %5, align 8, !tbaa !8
  %12 = load ptr, ptr %4, align 8, !tbaa !24
  store double %11, ptr %12, align 8, !tbaa !8
  call void @llvm.lifetime.end.p0(i64 8, ptr %5) #6
  ret void
}

; Function Attrs: nounwind uwtable
define internal void @geod_setarc(ptr noundef %0, double noundef %1) #0 {
  %3 = alloca ptr, align 8
  %4 = alloca double, align 8
  store ptr %0, ptr %3, align 8, !tbaa !22
  store double %1, ptr %4, align 8, !tbaa !8
  %5 = load double, ptr %4, align 8, !tbaa !8
  %6 = load ptr, ptr %3, align 8, !tbaa !22
  %7 = getelementptr inbounds nuw %struct.geod_geodesicline, ptr %6, i32 0, i32 7
  store double %5, ptr %7, align 8, !tbaa !57
  %8 = load double, ptr @NaN, align 8, !tbaa !8
  %9 = load ptr, ptr %3, align 8, !tbaa !22
  %10 = getelementptr inbounds nuw %struct.geod_geodesicline, ptr %9, i32 0, i32 8
  store double %8, ptr %10, align 8, !tbaa !56
  %11 = load ptr, ptr %3, align 8, !tbaa !22
  %12 = load ptr, ptr %3, align 8, !tbaa !22
  %13 = getelementptr inbounds nuw %struct.geod_geodesicline, ptr %12, i32 0, i32 7
  %14 = load double, ptr %13, align 8, !tbaa !57
  %15 = load ptr, ptr %3, align 8, !tbaa !22
  %16 = getelementptr inbounds nuw %struct.geod_geodesicline, ptr %15, i32 0, i32 8
  %17 = call double @geod_genposition(ptr noundef %11, i32 noundef 1, double noundef %14, ptr noundef null, ptr noundef null, ptr noundef null, ptr noundef %16, ptr noundef null, ptr noundef null, ptr noundef null, ptr noundef null)
  ret void
}

; Function Attrs: nounwind uwtable
define internal double @atan2dx(double noundef %0, double noundef %1) #0 {
  %3 = alloca double, align 8
  %4 = alloca double, align 8
  %5 = alloca i32, align 4
  %6 = alloca double, align 8
  store double %0, ptr %3, align 8, !tbaa !8
  store double %1, ptr %4, align 8, !tbaa !8
  call void @llvm.lifetime.start.p0(i64 4, ptr %5) #6
  store i32 0, ptr %5, align 4, !tbaa !10
  call void @llvm.lifetime.start.p0(i64 8, ptr %6) #6
  %7 = load double, ptr %3, align 8, !tbaa !8
  %8 = call double @llvm.fabs.f64(double %7)
  %9 = load double, ptr %4, align 8, !tbaa !8
  %10 = call double @llvm.fabs.f64(double %9)
  %11 = fcmp ogt double %8, %10
  br i1 %11, label %12, label %13

12:                                               ; preds = %2
  call void @swapx(ptr noundef %4, ptr noundef %3)
  store i32 2, ptr %5, align 4, !tbaa !10
  br label %13

13:                                               ; preds = %12, %2
  %14 = load double, ptr %4, align 8, !tbaa !8
  %15 = bitcast double %14 to i64
  %16 = icmp slt i64 %15, 0
  br i1 %16, label %17, label %22

17:                                               ; preds = %13
  %18 = load double, ptr %4, align 8, !tbaa !8
  %19 = fneg double %18
  store double %19, ptr %4, align 8, !tbaa !8
  %20 = load i32, ptr %5, align 4, !tbaa !10
  %21 = add nsw i32 %20, 1
  store i32 %21, ptr %5, align 4, !tbaa !10
  br label %22

22:                                               ; preds = %17, %13
  %23 = load double, ptr %3, align 8, !tbaa !8
  %24 = load double, ptr %4, align 8, !tbaa !8
  %25 = call double @atan2(double noundef %23, double noundef %24) #6, !tbaa !10
  %26 = load double, ptr @degree, align 8, !tbaa !8
  %27 = fdiv double %25, %26
  store double %27, ptr %6, align 8, !tbaa !8
  %28 = load i32, ptr %5, align 4, !tbaa !10
  switch i32 %28, label %40 [
    i32 1, label %29
    i32 2, label %34
    i32 3, label %37
  ]

29:                                               ; preds = %22
  %30 = load double, ptr %3, align 8, !tbaa !8
  %31 = call double @llvm.copysign.f64(double 1.800000e+02, double %30)
  %32 = load double, ptr %6, align 8, !tbaa !8
  %33 = fsub double %31, %32
  store double %33, ptr %6, align 8, !tbaa !8
  br label %41

34:                                               ; preds = %22
  %35 = load double, ptr %6, align 8, !tbaa !8
  %36 = fsub double 9.000000e+01, %35
  store double %36, ptr %6, align 8, !tbaa !8
  br label %41

37:                                               ; preds = %22
  %38 = load double, ptr %6, align 8, !tbaa !8
  %39 = fadd double -9.000000e+01, %38
  store double %39, ptr %6, align 8, !tbaa !8
  br label %41

40:                                               ; preds = %22
  br label %41

41:                                               ; preds = %40, %37, %34, %29
  %42 = load double, ptr %6, align 8, !tbaa !8
  call void @llvm.lifetime.end.p0(i64 8, ptr %6) #6
  call void @llvm.lifetime.end.p0(i64 4, ptr %5) #6
  ret double %42
}

; Function Attrs: nounwind uwtable
define void @geod_inverseline(ptr noundef %0, ptr noundef %1, double noundef %2, double noundef %3, double noundef %4, double noundef %5, i32 noundef %6) #0 {
  %8 = alloca ptr, align 8
  %9 = alloca ptr, align 8
  %10 = alloca double, align 8
  %11 = alloca double, align 8
  %12 = alloca double, align 8
  %13 = alloca double, align 8
  %14 = alloca i32, align 4
  %15 = alloca double, align 8
  %16 = alloca double, align 8
  %17 = alloca double, align 8
  %18 = alloca double, align 8
  store ptr %0, ptr %8, align 8, !tbaa !22
  store ptr %1, ptr %9, align 8, !tbaa !3
  store double %2, ptr %10, align 8, !tbaa !8
  store double %3, ptr %11, align 8, !tbaa !8
  store double %4, ptr %12, align 8, !tbaa !8
  store double %5, ptr %13, align 8, !tbaa !8
  store i32 %6, ptr %14, align 4, !tbaa !10
  call void @llvm.lifetime.start.p0(i64 8, ptr %15) #6
  call void @llvm.lifetime.start.p0(i64 8, ptr %16) #6
  call void @llvm.lifetime.start.p0(i64 8, ptr %17) #6
  %19 = load ptr, ptr %9, align 8, !tbaa !3
  %20 = load double, ptr %10, align 8, !tbaa !8
  %21 = load double, ptr %11, align 8, !tbaa !8
  %22 = load double, ptr %12, align 8, !tbaa !8
  %23 = load double, ptr %13, align 8, !tbaa !8
  %24 = call double @geod_geninverse_int(ptr noundef %19, double noundef %20, double noundef %21, double noundef %22, double noundef %23, ptr noundef null, ptr noundef %15, ptr noundef %16, ptr noundef null, ptr noundef null, ptr noundef null, ptr noundef null, ptr noundef null, ptr noundef null)
  store double %24, ptr %17, align 8, !tbaa !8
  call void @llvm.lifetime.start.p0(i64 8, ptr %18) #6
  %25 = load double, ptr %15, align 8, !tbaa !8
  %26 = load double, ptr %16, align 8, !tbaa !8
  %27 = call double @atan2dx(double noundef %25, double noundef %26)
  store double %27, ptr %18, align 8, !tbaa !8
  %28 = load i32, ptr %14, align 4, !tbaa !10
  %29 = icmp ne i32 %28, 0
  br i1 %29, label %30, label %32

30:                                               ; preds = %7
  %31 = load i32, ptr %14, align 4, !tbaa !10
  br label %33

32:                                               ; preds = %7
  br label %33

33:                                               ; preds = %32, %30
  %34 = phi i32 [ %31, %30 ], [ 2315, %32 ]
  store i32 %34, ptr %14, align 4, !tbaa !10
  %35 = load i32, ptr %14, align 4, !tbaa !10
  %36 = and i32 %35, 2048
  %37 = icmp ne i32 %36, 0
  br i1 %37, label %38, label %41

38:                                               ; preds = %33
  %39 = load i32, ptr %14, align 4, !tbaa !10
  %40 = or i32 %39, 1025
  store i32 %40, ptr %14, align 4, !tbaa !10
  br label %41

41:                                               ; preds = %38, %33
  %42 = load ptr, ptr %8, align 8, !tbaa !22
  %43 = load ptr, ptr %9, align 8, !tbaa !3
  %44 = load double, ptr %10, align 8, !tbaa !8
  %45 = load double, ptr %11, align 8, !tbaa !8
  %46 = load double, ptr %18, align 8, !tbaa !8
  %47 = load double, ptr %15, align 8, !tbaa !8
  %48 = load double, ptr %16, align 8, !tbaa !8
  %49 = load i32, ptr %14, align 4, !tbaa !10
  call void @geod_lineinit_int(ptr noundef %42, ptr noundef %43, double noundef %44, double noundef %45, double noundef %46, double noundef %47, double noundef %48, i32 noundef %49)
  %50 = load ptr, ptr %8, align 8, !tbaa !22
  %51 = load double, ptr %17, align 8, !tbaa !8
  call void @geod_setarc(ptr noundef %50, double noundef %51)
  call void @llvm.lifetime.end.p0(i64 8, ptr %18) #6
  call void @llvm.lifetime.end.p0(i64 8, ptr %17) #6
  call void @llvm.lifetime.end.p0(i64 8, ptr %16) #6
  call void @llvm.lifetime.end.p0(i64 8, ptr %15) #6
  ret void
}